; ModuleID = '2/1342.c'
source_filename = "2/1342.c"
target datalayout = "e-m:e-p270:32:32-p271:32:32-p272:64:64-i64:64-f80:128-n8:16:32:64-S128"
target triple = "x86_64-pc-linux-gnu"

%struct.book = type { i32, [100 x i8] }

@count = dso_local global [1000 x i32] zeroinitializer, align 16
@.str = private unnamed_addr constant [3 x i8] c"%d\00", align 1
@.str.1 = private unnamed_addr constant [6 x i8] c"%d %s\00", align 1
@b = common dso_local global [200000 x %struct.book] zeroinitializer, align 16
@.str.2 = private unnamed_addr constant [7 x i8] c"%c\0A%d\0A\00", align 1
@.str.3 = private unnamed_addr constant [4 x i8] c"%d\0A\00", align 1

; Function Attrs: noinline nounwind uwtable
define dso_local i32 @main() #0 {
  %1 = alloca i32, align 4
  %2 = alloca i32, align 4
  %3 = alloca i32, align 4
  %4 = alloca i32, align 4
  %5 = alloca i32, align 4
  %6 = alloca i32, align 4
  %7 = alloca i32, align 4
  store i32 0, i32* %1, align 4
  store i32 0, i32* %3, align 4
  %8 = call i32 (i8*, ...) @__isoc99_scanf(i8* getelementptr inbounds ([3 x i8], [3 x i8]* @.str, i64 0, i64 0), i32* %2)
  store i32 1, i32* %5, align 4
  br label %9

9:                                                ; preds = %51, %0
  %10 = load i32, i32* %5, align 4
  %11 = load i32, i32* %2, align 4
  %12 = icmp sle i32 %10, %11
  br i1 %12, label %13, label %54

13:                                               ; preds = %9
  %14 = load i32, i32* %5, align 4
  %15 = sext i32 %14 to i64
  %16 = getelementptr inbounds [200000 x %struct.book], [200000 x %struct.book]* @b, i64 0, i64 %15
  %17 = getelementptr inbounds %struct.book, %struct.book* %16, i32 0, i32 0
  %18 = load i32, i32* %5, align 4
  %19 = sext i32 %18 to i64
  %20 = getelementptr inbounds [200000 x %struct.book], [200000 x %struct.book]* @b, i64 0, i64 %19
  %21 = getelementptr inbounds %struct.book, %struct.book* %20, i32 0, i32 1
  %22 = getelementptr inbounds [100 x i8], [100 x i8]* %21, i64 0, i64 0
  %23 = call i32 (i8*, ...) @__isoc99_scanf(i8* getelementptr inbounds ([6 x i8], [6 x i8]* @.str.1, i64 0, i64 0), i32* %17, i8* %22)
  store i32 0, i32* %6, align 4
  br label %24

24:                                               ; preds = %47, %13
  %25 = load i32, i32* %6, align 4
  %26 = sext i32 %25 to i64
  %27 = load i32, i32* %5, align 4
  %28 = sext i32 %27 to i64
  %29 = getelementptr inbounds [200000 x %struct.book], [200000 x %struct.book]* @b, i64 0, i64 %28
  %30 = getelementptr inbounds %struct.book, %struct.book* %29, i32 0, i32 1
  %31 = getelementptr inbounds [100 x i8], [100 x i8]* %30, i64 0, i64 0
  %32 = call i64 @strlen(i8* %31) #3
  %33 = icmp ult i64 %26, %32
  br i1 %33, label %34, label %50

34:                                               ; preds = %24
  %35 = load i32, i32* %5, align 4
  %36 = sext i32 %35 to i64
  %37 = getelementptr inbounds [200000 x %struct.book], [200000 x %struct.book]* @b, i64 0, i64 %36
  %38 = getelementptr inbounds %struct.book, %struct.book* %37, i32 0, i32 1
  %39 = load i32, i32* %6, align 4
  %40 = sext i32 %39 to i64
  %41 = getelementptr inbounds [100 x i8], [100 x i8]* %38, i64 0, i64 %40
  %42 = load i8, i8* %41, align 1
  %43 = sext i8 %42 to i64
  %44 = getelementptr inbounds [1000 x i32], [1000 x i32]* @count, i64 0, i64 %43
  %45 = load i32, i32* %44, align 4
  %46 = add nsw i32 %45, 1
  store i32 %46, i32* %44, align 4
  br label %47

47:                                               ; preds = %34
  %48 = load i32, i32* %6, align 4
  %49 = add nsw i32 %48, 1
  store i32 %49, i32* %6, align 4
  br label %24

50:                                               ; preds = %24
  br label %51

51:                                               ; preds = %50
  %52 = load i32, i32* %5, align 4
  %53 = add nsw i32 %52, 1
  store i32 %53, i32* %5, align 4
  br label %9

54:                                               ; preds = %9
  store i32 65, i32* %5, align 4
  br label %55

55:                                               ; preds = %72, %54
  %56 = load i32, i32* %5, align 4
  %57 = icmp sle i32 %56, 90
  br i1 %57, label %58, label %75

58:                                               ; preds = %55
  %59 = load i32, i32* %5, align 4
  %60 = sext i32 %59 to i64
  %61 = getelementptr inbounds [1000 x i32], [1000 x i32]* @count, i64 0, i64 %60
  %62 = load i32, i32* %61, align 4
  %63 = load i32, i32* %3, align 4
  %64 = icmp sgt i32 %62, %63
  br i1 %64, label %65, label %71

65:                                               ; preds = %58
  %66 = load i32, i32* %5, align 4
  %67 = sext i32 %66 to i64
  %68 = getelementptr inbounds [1000 x i32], [1000 x i32]* @count, i64 0, i64 %67
  %69 = load i32, i32* %68, align 4
  store i32 %69, i32* %3, align 4
  %70 = load i32, i32* %5, align 4
  store i32 %70, i32* %4, align 4
  br label %71

71:                                               ; preds = %65, %58
  br label %72

72:                                               ; preds = %71
  %73 = load i32, i32* %5, align 4
  %74 = add nsw i32 %73, 1
  store i32 %74, i32* %5, align 4
  br label %55

75:                                               ; preds = %55
  %76 = load i32, i32* %4, align 4
  %77 = load i32, i32* %3, align 4
  %78 = call i32 (i8*, ...) @printf(i8* getelementptr inbounds ([7 x i8], [7 x i8]* @.str.2, i64 0, i64 0), i32 %76, i32 %77)
  store i32 1, i32* %5, align 4
  br label %79

79:                                               ; preds = %122, %75
  %80 = load i32, i32* %5, align 4
  %81 = load i32, i32* %2, align 4
  %82 = icmp sle i32 %80, %81
  br i1 %82, label %83, label %125

83:                                               ; preds = %79
  store i32 0, i32* %7, align 4
  store i32 0, i32* %6, align 4
  br label %84

84:                                               ; preds = %108, %83
  %85 = load i32, i32* %6, align 4
  %86 = sext i32 %85 to i64
  %87 = load i32, i32* %5, align 4
  %88 = sext i32 %87 to i64
  %89 = getelementptr inbounds [200000 x %struct.book], [200000 x %struct.book]* @b, i64 0, i64 %88
  %90 = getelementptr inbounds %struct.book, %struct.book* %89, i32 0, i32 1
  %91 = getelementptr inbounds [100 x i8], [100 x i8]* %90, i64 0, i64 0
  %92 = call i64 @strlen(i8* %91) #3
  %93 = icmp ult i64 %86, %92
  br i1 %93, label %94, label %111

94:                                               ; preds = %84
  %95 = load i32, i32* %5, align 4
  %96 = sext i32 %95 to i64
  %97 = getelementptr inbounds [200000 x %struct.book], [200000 x %struct.book]* @b, i64 0, i64 %96
  %98 = getelementptr inbounds %struct.book, %struct.book* %97, i32 0, i32 1
  %99 = load i32, i32* %6, align 4
  %100 = sext i32 %99 to i64
  %101 = getelementptr inbounds [100 x i8], [100 x i8]* %98, i64 0, i64 %100
  %102 = load i8, i8* %101, align 1
  %103 = sext i8 %102 to i32
  %104 = load i32, i32* %4, align 4
  %105 = icmp eq i32 %103, %104
  br i1 %105, label %106, label %107

106:                                              ; preds = %94
  store i32 1, i32* %7, align 4
  br label %107

107:                                              ; preds = %106, %94
  br label %108

108:                                              ; preds = %107
  %109 = load i32, i32* %6, align 4
  %110 = add nsw i32 %109, 1
  store i32 %110, i32* %6, align 4
  br label %84

111:                                              ; preds = %84
  %112 = load i32, i32* %7, align 4
  %113 = icmp eq i32 %112, 1
  br i1 %113, label %114, label %121

114:                                              ; preds = %111
  %115 = load i32, i32* %5, align 4
  %116 = sext i32 %115 to i64
  %117 = getelementptr inbounds [200000 x %struct.book], [200000 x %struct.book]* @b, i64 0, i64 %116
  %118 = getelementptr inbounds %struct.book, %struct.book* %117, i32 0, i32 0
  %119 = load i32, i32* %118, align 8
  %120 = call i32 (i8*, ...) @printf(i8* getelementptr inbounds ([4 x i8], [4 x i8]* @.str.3, i64 0, i64 0), i32 %119)
  br label %121

121:                                              ; preds = %114, %111
  br label %122

122:                                              ; preds = %121
  %123 = load i32, i32* %5, align 4
  %124 = add nsw i32 %123, 1
  store i32 %124, i32* %5, align 4
  br label %79

125:                                              ; preds = %79
  ret i32 0
}

declare dso_local i32 @__isoc99_scanf(i8*, ...) #1

; Function Attrs: nounwind readonly
declare dso_local i64 @strlen(i8*) #2

declare dso_local i32 @printf(i8*, ...) #1


!llvm.module.flags = !{!0}
!llvm.ident = !{!1}

!0 = !{i32 1, !"wchar_size", i32 4}
!1 = !{!"clang version 10.0.0-4ubuntu1 "}
